; Function Attrs: nounwind uwtable
define noalias nonnull ptr @l_Lake_InputDirConfig_filter___proj(ptr noundef %0) local_unnamed_addr #1 {
  %2 = ptrtoint ptr %0 to i64
  %3 = and i64 %2, 1
  %.not = icmp eq i64 %3, 0
  br i1 %.not, label %4, label %lean_inc.exit17

4:                                                ; preds = %1
  %.val.i = load i32, ptr %0, align 4, !tbaa !8
  %5 = icmp sgt i32 %.val.i, 0
  br i1 %5, label %6, label %8, !prof !12

6:                                                ; preds = %4
  %7 = add nuw i32 %.val.i, 1
  store i32 %7, ptr %0, align 4, !tbaa !8
  br label %lean_inc.exit17

8:                                                ; preds = %4
  %.not.i = icmp eq i32 %.val.i, 0
  br i1 %.not.i, label %lean_inc.exit17, label %9

9:                                                ; preds = %8
  tail call void @lean_inc_ref_cold(ptr noundef nonnull %0) #7
  br label %lean_inc.exit17

lean_inc.exit17:                                  ; preds = %9, %8, %6, %1
  tail call void @lean_inc_heartbeat() #7
  %10 = tail call noalias ptr @mi_malloc_small(i64 noundef 32) #7
  %11 = icmp eq ptr %10, null
  br i1 %11, label %12, label %lean_alloc_closure.exit

12:                                               ; preds = %lean_inc.exit17
  tail call void @lean_internal_panic_out_of_memory() #8
  unreachable

lean_alloc_closure.exit:                          ; preds = %lean_inc.exit17
  %13 = getelementptr inbounds nuw i8, ptr %10, i64 4
  store i32 1, ptr %10, align 4, !tbaa !8
  store i32 -184549344, ptr %13, align 4
  %14 = getelementptr inbounds nuw i8, ptr %10, i64 8
  store ptr @l_Lake_InputDirConfig_filter___proj___elambda__3___boxed, ptr %14, align 8, !tbaa !4
  %15 = getelementptr inbounds nuw i8, ptr %10, i64 16
  store i16 3, ptr %15, align 8, !tbaa !15
  %16 = getelementptr inbounds nuw i8, ptr %10, i64 18
  store i16 1, ptr %16, align 2, !tbaa !15
  %17 = getelementptr inbounds nuw i8, ptr %10, i64 24
  store ptr %0, ptr %17, align 8, !tbaa !4
  br i1 %.not, label %18, label %lean_inc.exit

18:                                               ; preds = %lean_alloc_closure.exit
  %.val.i18 = load i32, ptr %0, align 4, !tbaa !8
  %19 = icmp sgt i32 %.val.i18, 0
  br i1 %19, label %20, label %22, !prof !12

20:                                               ; preds = %18
  %21 = add nuw i32 %.val.i18, 1
  store i32 %21, ptr %0, align 4, !tbaa !8
  br label %lean_inc.exit

22:                                               ; preds = %18
  %.not.i19 = icmp eq i32 %.val.i18, 0
  br i1 %.not.i19, label %lean_inc.exit, label %23

23:                                               ; preds = %22
  tail call void @lean_inc_ref_cold(ptr noundef nonnull %0) #7
  br label %lean_inc.exit

lean_inc.exit:                                    ; preds = %23, %22, %20, %lean_alloc_closure.exit
  tail call void @lean_inc_heartbeat() #7
  %24 = tail call noalias ptr @mi_malloc_small(i64 noundef 32) #7
  %25 = icmp eq ptr %24, null
  br i1 %25, label %26, label %lean_alloc_closure.exit21

26:                                               ; preds = %lean_inc.exit
  tail call void @lean_internal_panic_out_of_memory() #8
  unreachable

lean_alloc_closure.exit21:                        ; preds = %lean_inc.exit
  %27 = getelementptr inbounds nuw i8, ptr %24, i64 4
  store i32 1, ptr %24, align 4, !tbaa !8
  store i32 -184549344, ptr %27, align 4
  %28 = getelementptr inbounds nuw i8, ptr %24, i64 8
  store ptr @l_Lake_InputDirConfig_filter___proj___elambda__2___boxed, ptr %28, align 8, !tbaa !4
  %29 = getelementptr inbounds nuw i8, ptr %24, i64 16
  store i16 3, ptr %29, align 8, !tbaa !15
  %30 = getelementptr inbounds nuw i8, ptr %24, i64 18
  store i16 1, ptr %30, align 2, !tbaa !15
  %31 = getelementptr inbounds nuw i8, ptr %24, i64 24
  store ptr %0, ptr %31, align 8, !tbaa !4
  tail call void @lean_inc_heartbeat() #7
  %32 = tail call noalias ptr @mi_malloc_small(i64 noundef 32) #7
  %33 = icmp eq ptr %32, null
  br i1 %33, label %34, label %lean_alloc_closure.exit22

34:                                               ; preds = %lean_alloc_closure.exit21
  tail call void @lean_internal_panic_out_of_memory() #8
  unreachable

lean_alloc_closure.exit22:                        ; preds = %lean_alloc_closure.exit21
  %35 = getelementptr inbounds nuw i8, ptr %32, i64 4
  store i32 1, ptr %32, align 4, !tbaa !8
  store i32 -184549344, ptr %35, align 4
  %36 = getelementptr inbounds nuw i8, ptr %32, i64 8
  store ptr @l_Lake_InputDirConfig_filter___proj___elambda__1___boxed, ptr %36, align 8, !tbaa !4
  %37 = getelementptr inbounds nuw i8, ptr %32, i64 16
  store i16 2, ptr %37, align 8, !tbaa !15
  %38 = getelementptr inbounds nuw i8, ptr %32, i64 18
  store i16 1, ptr %38, align 2, !tbaa !15
  %39 = getelementptr inbounds nuw i8, ptr %32, i64 24
  store ptr %0, ptr %39, align 8, !tbaa !4
  tail call void @lean_inc_heartbeat() #7
  %40 = tail call noalias ptr @mi_malloc_small(i64 noundef 24) #7
  %41 = icmp eq ptr %40, null
  br i1 %41, label %42, label %lean_alloc_closure.exit23

42:                                               ; preds = %lean_alloc_closure.exit22
  tail call void @lean_internal_panic_out_of_memory() #8
  unreachable

lean_alloc_closure.exit23:                        ; preds = %lean_alloc_closure.exit22
  %43 = getelementptr inbounds nuw i8, ptr %40, i64 4
  store i32 1, ptr %40, align 4, !tbaa !8
  store i32 -184549352, ptr %43, align 4
  %44 = getelementptr inbounds nuw i8, ptr %40, i64 8
  store ptr @l_Lake_InputDirConfig_filter___proj___elambda__4___rarg___boxed, ptr %44, align 8, !tbaa !4
  %45 = getelementptr inbounds nuw i8, ptr %40, i64 16
  store i16 1, ptr %45, align 8, !tbaa !15
  %46 = getelementptr inbounds nuw i8, ptr %40, i64 18
  store i16 0, ptr %46, align 2, !tbaa !15
  tail call void @lean_inc_heartbeat() #7
  %47 = tail call noalias ptr @mi_malloc_small(i64 noundef 40) #7
  %48 = icmp eq ptr %47, null
  br i1 %48, label %49, label %lean_alloc_ctor.exit

49:                                               ; preds = %lean_alloc_closure.exit23
  tail call void @lean_internal_panic_out_of_memory() #8
  unreachable

lean_alloc_ctor.exit:                             ; preds = %lean_alloc_closure.exit23
  %50 = getelementptr inbounds nuw i8, ptr %47, i64 4
  store i32 1, ptr %47, align 4, !tbaa !8
  store i32 262184, ptr %50, align 4
  %51 = getelementptr inbounds nuw i8, ptr %47, i64 8
  store ptr %40, ptr %51, align 8, !tbaa !4
  %52 = getelementptr inbounds nuw i8, ptr %47, i64 16
  store ptr %10, ptr %52, align 8, !tbaa !4
  %53 = getelementptr inbounds nuw i8, ptr %47, i64 24
  store ptr %24, ptr %53, align 8, !tbaa !4
  %54 = getelementptr inbounds nuw i8, ptr %47, i64 32
  store ptr %32, ptr %54, align 8, !tbaa !4
  ret ptr %47
}